target datalayout = "e-m:e-p270:32:32-p271:32:32-p272:64:64-i64:64-i128:128-f80:128-n8:16:32:64-S128"
target triple = "x86_64-pc-linux-gnu"

%class.Metadata = type { ptr }
%class.AccessFlags = type { i32 }
%class.Method = type { %class.Metadata, ptr, ptr, ptr, ptr, %class.AccessFlags, i32, %class.MethodFlags, i16, %class.JfrTraceFlag, ptr, ptr, ptr, ptr }
%class.MethodFlags = type { i32 }
%class.JfrTraceFlag = type { i16 }
%class.CompressedLineNumberReadStream = type { %class.CompressedReadStream.base, i32, i32, [4 x i8] }
%class.CompressedReadStream.base = type { %class.CompressedStream.base }
%class.CompressedStream.base = type <{ ptr, i32 }>
%struct.jvmtiLineNumberEntry = type { i64, i32 }
%class.ConstMethod = type <{ i64, ptr, ptr, i32, %class.ConstMethodFlags, i8, i8, i16, i16, i16, i16, i16, i16, i16, i16, i16, [4 x i8] }>
%class.ConstMethodFlags = type { i32 }

; Function Attrs: mustprogress nounwind uwtable
define linkonce_odr hidden noundef zeroext i1 @_ZNK16ConstMethodFlags20has_linenumber_tableEv(ptr noundef nonnull align 4 dereferenceable(4) %0) #1 comdat align 2 {
  %2 = alloca ptr, align 8
  store ptr %0, ptr %2, align 8
  %3 = load ptr, ptr %2, align 8
  %4 = getelementptr inbounds %class.ConstMethodFlags, ptr %3, i32 0, i32 0
  %5 = load i32, ptr %4, align 4
  %6 = and i32 %5, 1
  %7 = icmp ne i32 %6, 0
  ret i1 %7
}

; Function Attrs: mustprogress nounwind uwtable
define linkonce_odr hidden noundef zeroext i1 @_ZNK11ConstMethod20has_linenumber_tableEv(ptr noundef nonnull align 8 dereferenceable(52) %0) #1 comdat align 2 {
  %2 = alloca ptr, align 8
  store ptr %0, ptr %2, align 8
  %3 = load ptr, ptr %2, align 8
  %4 = getelementptr inbounds %class.ConstMethod, ptr %3, i32 0, i32 4
  %5 = call noundef zeroext i1 @_ZNK16ConstMethodFlags20has_linenumber_tableEv(ptr noundef nonnull align 4 dereferenceable(4) %4)
  ret i1 %5
}

; Function Attrs: mustprogress nounwind uwtable
define linkonce_odr hidden noundef ptr @_ZNK6Method11constMethodEv(ptr noundef nonnull align 8 dereferenceable(88) %0) #1 comdat align 2 {
  %2 = alloca ptr, align 8
  store ptr %0, ptr %2, align 8
  %3 = load ptr, ptr %2, align 8
  %4 = getelementptr inbounds %class.Method, ptr %3, i32 0, i32 1
  %5 = load ptr, ptr %4, align 8
  ret ptr %5
}

; Function Attrs: mustprogress nounwind uwtable
define linkonce_odr hidden noundef i32 @_ZNK30CompressedLineNumberReadStream4lineEv(ptr noundef nonnull align 8 dereferenceable(20) %0) #1 comdat align 2 {
  %2 = alloca ptr, align 8
  store ptr %0, ptr %2, align 8
  %3 = load ptr, ptr %2, align 8
  %4 = getelementptr inbounds %class.CompressedLineNumberReadStream, ptr %3, i32 0, i32 2
  %5 = load i32, ptr %4, align 8
  ret i32 %5
}

; Function Attrs: mustprogress nounwind uwtable
define linkonce_odr hidden noundef i32 @_ZNK30CompressedLineNumberReadStream3bciEv(ptr noundef nonnull align 8 dereferenceable(20) %0) #1 comdat align 2 {
  %2 = alloca ptr, align 8
  store ptr %0, ptr %2, align 8
  %3 = load ptr, ptr %2, align 8
  %4 = getelementptr inbounds %class.CompressedLineNumberReadStream, ptr %3, i32 0, i32 1
  %5 = load i32, ptr %4, align 4
  ret i32 %5
}

; Function Attrs: mustprogress nounwind uwtable
define linkonce_odr hidden noundef ptr @_ZNK6Method27compressed_linenumber_tableEv(ptr noundef nonnull align 8 dereferenceable(88) %0) #1 comdat align 2 {
  %2 = alloca ptr, align 8
  store ptr %0, ptr %2, align 8
  %3 = load ptr, ptr %2, align 8
  %4 = call noundef ptr @_ZNK6Method11constMethodEv(ptr noundef nonnull align 8 dereferenceable(88) %3)
  %5 = call noundef ptr @_ZNK11ConstMethod27compressed_linenumber_tableEv(ptr noundef nonnull align 8 dereferenceable(52) %4)
  ret ptr %5
}

; Function Attrs: mustprogress nounwind uwtable
define linkonce_odr hidden noundef zeroext i1 @_ZNK6Method20has_linenumber_tableEv(ptr noundef nonnull align 8 dereferenceable(88) %0) #1 comdat align 2 {
  %2 = alloca ptr, align 8
  store ptr %0, ptr %2, align 8
  %3 = load ptr, ptr %2, align 8
  %4 = call noundef ptr @_ZNK6Method11constMethodEv(ptr noundef nonnull align 8 dereferenceable(88) %3)
  %5 = call noundef zeroext i1 @_ZNK11ConstMethod20has_linenumber_tableEv(ptr noundef nonnull align 8 dereferenceable(52) %4)
  ret i1 %5
}

; Function Attrs: mustprogress nounwind uwtable
define hidden noundef i32 @_ZN8JvmtiEnv18GetLineNumberTableEP6MethodPiPP20jvmtiLineNumberEntry(ptr noundef nonnull align 8 dereferenceable(460) %0, ptr noundef %1, ptr noundef %2, ptr noundef %3) #1 align 2 {
  %5 = alloca i32, align 4
  %6 = alloca ptr, align 8
  %7 = alloca ptr, align 8
  %8 = alloca ptr, align 8
  %9 = alloca ptr, align 8
  %10 = alloca i32, align 4
  %11 = alloca %class.CompressedLineNumberReadStream, align 8
  %12 = alloca ptr, align 8
  %13 = alloca i32, align 4
  %14 = alloca %class.CompressedLineNumberReadStream, align 8
  store ptr %0, ptr %6, align 8
  store ptr %1, ptr %7, align 8
  store ptr %2, ptr %8, align 8
  store ptr %3, ptr %9, align 8
  %15 = load ptr, ptr %6, align 8
  %16 = load ptr, ptr %7, align 8
  %17 = icmp eq ptr %16, null
  br i1 %17, label %18, label %19

18:                                               ; preds = %4
  store i32 23, ptr %5, align 4
  br label %65

19:                                               ; preds = %4
  %20 = load ptr, ptr %7, align 8
  %21 = call noundef zeroext i1 @_ZNK6Method20has_linenumber_tableEv(ptr noundef nonnull align 8 dereferenceable(88) %20)
  br i1 %21, label %23, label %22

22:                                               ; preds = %19
  store i32 101, ptr %5, align 4
  br label %65

23:                                               ; preds = %19
  store i32 0, ptr %10, align 4
  %24 = load ptr, ptr %7, align 8
  %25 = call noundef ptr @_ZNK6Method27compressed_linenumber_tableEv(ptr noundef nonnull align 8 dereferenceable(88) %24)
  call void @_ZN30CompressedLineNumberReadStreamC1EPh(ptr noundef nonnull align 8 dereferenceable(20) %11, ptr noundef %25)
  br label %26

26:                                               ; preds = %28, %23
  %27 = call noundef zeroext i1 @_ZN30CompressedLineNumberReadStream9read_pairEv(ptr noundef nonnull align 8 dereferenceable(20) %11)
  br i1 %27, label %28, label %31

28:                                               ; preds = %26
  %29 = load i32, ptr %10, align 4
  %30 = add nsw i32 %29, 1
  store i32 %30, ptr %10, align 4
  br label %26, !llvm.loop !27

31:                                               ; preds = %26
  %32 = load i32, ptr %10, align 4
  %33 = sext i32 %32 to i64
  %34 = mul i64 %33, 16
  %35 = call noundef ptr @_ZN12JvmtiEnvBase11jvmtiMallocEl(ptr noundef nonnull align 8 dereferenceable(460) %15, i64 noundef %34)
  store ptr %35, ptr %12, align 8
  %36 = load i32, ptr %10, align 4
  %37 = icmp sgt i32 %36, 0
  br i1 %37, label %38, label %60

38:                                               ; preds = %31
  store i32 0, ptr %13, align 4
  %39 = load ptr, ptr %7, align 8
  %40 = call noundef ptr @_ZNK6Method27compressed_linenumber_tableEv(ptr noundef nonnull align 8 dereferenceable(88) %39)
  call void @_ZN30CompressedLineNumberReadStreamC1EPh(ptr noundef nonnull align 8 dereferenceable(20) %14, ptr noundef %40)
  br label %41

41:                                               ; preds = %43, %38
  %42 = call noundef zeroext i1 @_ZN30CompressedLineNumberReadStream9read_pairEv(ptr noundef nonnull align 8 dereferenceable(20) %14)
  br i1 %42, label %43, label %59

43:                                               ; preds = %41
  %44 = call noundef i32 @_ZNK30CompressedLineNumberReadStream3bciEv(ptr noundef nonnull align 8 dereferenceable(20) %14)
  %45 = sext i32 %44 to i64
  %46 = load ptr, ptr %12, align 8
  %47 = load i32, ptr %13, align 4
  %48 = sext i32 %47 to i64
  %49 = getelementptr inbounds %struct.jvmtiLineNumberEntry, ptr %46, i64 %48
  %50 = getelementptr inbounds %struct.jvmtiLineNumberEntry, ptr %49, i32 0, i32 0
  store i64 %45, ptr %50, align 8
  %51 = call noundef i32 @_ZNK30CompressedLineNumberReadStream4lineEv(ptr noundef nonnull align 8 dereferenceable(20) %14)
  %52 = load ptr, ptr %12, align 8
  %53 = load i32, ptr %13, align 4
  %54 = sext i32 %53 to i64
  %55 = getelementptr inbounds %struct.jvmtiLineNumberEntry, ptr %52, i64 %54
  %56 = getelementptr inbounds %struct.jvmtiLineNumberEntry, ptr %55, i32 0, i32 1
  store i32 %51, ptr %56, align 8
  %57 = load i32, ptr %13, align 4
  %58 = add nsw i32 %57, 1
  store i32 %58, ptr %13, align 4
  br label %41, !llvm.loop !28

59:                                               ; preds = %41
  br label %60

60:                                               ; preds = %59, %31
  %61 = load i32, ptr %10, align 4
  %62 = load ptr, ptr %8, align 8
  store i32 %61, ptr %62, align 4
  %63 = load ptr, ptr %12, align 8
  %64 = load ptr, ptr %9, align 8
  store ptr %63, ptr %64, align 8
  store i32 0, ptr %5, align 4
  br label %65

65:                                               ; preds = %60, %22, %18
  %66 = load i32, ptr %5, align 4
  ret i32 %66
}