; Function Attrs: mustprogress nounwind uwtable
define hidden noundef range(i32 0, 102) i32 @_ZN8JvmtiEnv18GetLineNumberTableEP6MethodPiPP20jvmtiLineNumberEntry(ptr noundef nonnull align 8 dereferenceable(460) %0, ptr noundef readonly %1, ptr nocapture noundef writeonly %2, ptr nocapture noundef writeonly %3) local_unnamed_addr #0 align 2 {
  %5 = alloca %class.CompressedLineNumberReadStream, align 8
  %6 = alloca %class.CompressedLineNumberReadStream, align 8
  %7 = icmp eq ptr %1, null
  br i1 %7, label %36, label %8

8:                                                ; preds = %4
  %9 = getelementptr inbounds i8, ptr %1, i64 8
  %10 = load ptr, ptr %9, align 8
  %11 = getelementptr inbounds i8, ptr %10, i64 28
  %12 = load i32, ptr %11, align 4
  %13 = and i32 %12, 1
  %.not20 = icmp eq i32 %13, 0
  br i1 %.not20, label %36, label %14

14:                                               ; preds = %8
  %15 = tail call noundef ptr @_ZNK11ConstMethod27compressed_linenumber_tableEv(ptr noundef nonnull align 8 dereferenceable(52) %10) #17
  call void @_ZN30CompressedLineNumberReadStreamC1EPh(ptr noundef nonnull align 8 dereferenceable(20) %5, ptr noundef %15) #17
  br label %16

16:                                               ; preds = %16, %14
  %.018 = phi i32 [ 0, %14 ], [ %18, %16 ]
  %17 = call noundef zeroext i1 @_ZN30CompressedLineNumberReadStream9read_pairEv(ptr noundef nonnull align 8 dereferenceable(20) %5) #17
  %18 = add nuw nsw i32 %.018, 1
  br i1 %17, label %16, label %19, !llvm.loop !38

19:                                               ; preds = %16
  %20 = zext nneg i32 %.018 to i64
  %21 = shl nuw nsw i64 %20, 4
  %22 = call noundef ptr @_ZN12JvmtiEnvBase11jvmtiMallocEl(ptr noundef nonnull align 8 dereferenceable(460) %0, i64 noundef %21) #17
  %.not = icmp eq i32 %.018, 0
  br i1 %.not, label %.loopexit, label %23

23:                                               ; preds = %19
  %24 = load ptr, ptr %9, align 8
  %25 = call noundef ptr @_ZNK11ConstMethod27compressed_linenumber_tableEv(ptr noundef nonnull align 8 dereferenceable(52) %24) #17
  call void @_ZN30CompressedLineNumberReadStreamC1EPh(ptr noundef nonnull align 8 dereferenceable(20) %6, ptr noundef %25) #17
  %26 = call noundef zeroext i1 @_ZN30CompressedLineNumberReadStream9read_pairEv(ptr noundef nonnull align 8 dereferenceable(20) %6) #17
  br i1 %26, label %.lr.ph, label %.loopexit

.lr.ph:                                           ; preds = %23
  %27 = getelementptr inbounds i8, ptr %6, i64 12
  %28 = getelementptr inbounds i8, ptr %6, i64 16
  br label %29

29:                                               ; preds = %.lr.ph, %29
  %indvars.iv = phi i64 [ 0, %.lr.ph ], [ %indvars.iv.next, %29 ]
  %30 = load i32, ptr %27, align 4
  %31 = sext i32 %30 to i64
  %32 = getelementptr inbounds %struct.jvmtiLineNumberEntry, ptr %22, i64 %indvars.iv
  store i64 %31, ptr %32, align 8
  %33 = load i32, ptr %28, align 8
  %34 = getelementptr inbounds i8, ptr %32, i64 8
  store i32 %33, ptr %34, align 8
  %indvars.iv.next = add nuw nsw i64 %indvars.iv, 1
  %35 = call noundef zeroext i1 @_ZN30CompressedLineNumberReadStream9read_pairEv(ptr noundef nonnull align 8 dereferenceable(20) %6) #17
  br i1 %35, label %29, label %.loopexit, !llvm.loop !39

.loopexit:                                        ; preds = %29, %23, %19
  store i32 %.018, ptr %2, align 4
  store ptr %22, ptr %3, align 8
  br label %36

36:                                               ; preds = %8, %4, %.loopexit
  %.017 = phi i32 [ 0, %.loopexit ], [ 23, %4 ], [ 101, %8 ]
  ret i32 %.017
}